target datalayout = "e-m:e-p270:32:32-p271:32:32-p272:64:64-i64:64-i128:128-f80:128-n8:16:32:64-S128"
target triple = "x86_64-pc-linux-gnu"

%struct.redisServer = type { i32, i64, ptr, ptr, ptr, i32, i32, i32, i32, i32, ptr, ptr, ptr, ptr, ptr, i32, i32, i32, i32, i64, i32, i32, i32, i32, ptr, i32, i32, [41 x i8], i32, i64, i32, i32, i32, ptr, ptr, i32, i32, i64, ptr, ptr, ptr, ptr, [2 x i32], i32, i32, i32, i32, i32, i32, [16 x ptr], i32, ptr, ptr, i32, [8 x %struct.connListener], i32, %struct.connListener, ptr, ptr, ptr, ptr, ptr, ptr, ptr, ptr, ptr, ptr, i32, ptr, i32, ptr, [3 x %struct.pause_event], [256 x i8], ptr, i64, i32, i32, [128 x i32], i32, i32, i64, i32, i32, i32, i32, i32, i64, i64, i64, i64, i64, i64, i64, i64, i64, i64, double, i64, i64, i64, i64, i64, i64, i64, i64, i64, i64, i64, i64, i64, i64, i64, i64, i64, i64, i64, i64, i64, double, i64, i64, i64, i64, i64, ptr, i64, i64, i64, %struct.malloc_stats, i64, i64, i64, i64, i64, i64, i64, i64, i64, i64, i64, i64, double, [4 x i64], i64, i64, i64, i64, [128 x i64], [128 x i64], i64, i64, [7 x %struct.anon], i64, i64, i64, i64, i64, i64, [4 x %struct.durationStats], i32, i32, i32, i32, i32, i32, i32, i32, i32, i32, i32, i32, i64, i32, i32, i32, i32, i64, i64, i32, i32, i32, i32, i32, ptr, [3 x %struct.clientBufferLimitsConfig], i32, i32, i32, ptr, i32, i32, i32, i32, i32, i32, ptr, ptr, i32, i32, i64, i64, i64, i64, i64, i32, i32, ptr, i32, i32, i64, i64, i64, i64, i64, i32, i32, i64, i32, i32, i32, i32, i32, i32, i32, i32, ptr, i32, i64, i64, i64, i64, i32, ptr, i32, ptr, i32, i32, i32, i64, i64, i64, i64, i32, i32, i32, i32, i32, i32, ptr, i32, i32, ptr, i32, i32, i32, [2 x i32], i32, %struct.redisOpArray, i32, ptr, i32, ptr, i32, i32, i32, i32, i32, i32, i32, [41 x i8], [41 x i8], i64, i64, i64, i64, i32, i32, ptr, i64, i64, %struct.replDataBuf, i64, i64, i32, i32, i32, i32, i32, i32, i32, i32, i32, i64, ptr, i64, ptr, ptr, ptr, i32, i32, ptr, ptr, i32, i32, i32, i64, i64, i64, i64, ptr, ptr, i32, ptr, i64, i32, i32, i32, i64, i32, i32, i32, i32, ptr, i32, i32, [41 x i8], i64, i32, ptr, i32, i32, i64, i64, i32, i32, i32, i32, i32, i64, [3 x i32], i32, i32, i32, [10 x i32], ptr, ptr, i32, i64, ptr, ptr, i32, i32, i32, i32, i64, i64, i64, i64, i64, i64, i64, i64, i64, i64, i32, i32, i64, i64, i32, i64, i64, i64, i64, i64, ptr, ptr, i32, ptr, i32, i32, i32, i32, i64, i64, ptr, ptr, i32, i32, i32, i32, i32, ptr, ptr, ptr, i32, i32, i32, i32, i32, i32, i32, i64, i32, i32, i64, i32, i32, i32, i32, i32, i32, i32, i64, ptr, ptr, i64, ptr, i32, %struct.aclInfo, i32, i64, i32, i32, i32, %struct.redisTLSContextConfig, ptr, ptr, ptr, ptr, ptr, i64, i32, ptr, i32, i32, i32, i64, i32, ptr }
%struct.connListener = type { [16 x i32], i32, ptr, i32, i32, ptr, ptr }
%struct.pause_event = type { i32, i64 }
%struct.malloc_stats = type { i64, i64, i64, i64, i64, i64, i64, i64, i64, i64, i64 }
%struct.anon = type { i64, i64, [16 x i64], i32 }
%struct.durationStats = type { i64, i64, i64 }
%struct.clientBufferLimitsConfig = type { i64, i64, i64 }
%struct.redisOpArray = type { ptr, i32, i32 }
%struct.replDataBuf = type { ptr, i64, i64, i64, i64 }
%struct.aclInfo = type { i64, i64, i64, i64 }
%struct.redisTLSContextConfig = type { ptr, ptr, ptr, ptr, ptr, ptr, ptr, ptr, ptr, ptr, ptr, ptr, i32, i32, i32, i32 }
%struct.sentinelState = type { [41 x i8], i64, ptr, i32, i32, i64, i64, ptr, ptr, i32, i64, i32, ptr, ptr, i32, i32 }
%struct.sentinelRedisInstance = type { i32, ptr, ptr, i64, ptr, ptr, i64, i64, i64, i64, i64, i64, i64, i64, i64, ptr, i32, i64, i64, ptr, ptr, i32, i32, ptr, ptr, i64, i32, i32, i64, ptr, ptr, i32, i32, i64, ptr, i64, i64, i32, i64, i64, i64, i64, ptr, ptr, ptr, ptr }
%struct.sentinelAddr = type { ptr, ptr, i32 }
%struct.__va_list_tag = type { i32, i32, ptr, ptr }

@server = external global %struct.redisServer, align 8
@sentinel = dso_local global %struct.sentinelState zeroinitializer, align 8
@.str.15 = private unnamed_addr constant [23 x i8] c"%s %s %s %d @ %s %s %d\00", align 1
@.str.16 = private unnamed_addr constant [12 x i8] c"%s %s %s %d\00", align 1
@.str.17 = private unnamed_addr constant [6 x i8] c"%s %s\00", align 1
@.str.48 = private unnamed_addr constant [7 x i8] c"master\00", align 1
@.str.49 = private unnamed_addr constant [6 x i8] c"slave\00", align 1
@.str.50 = private unnamed_addr constant [9 x i8] c"sentinel\00", align 1
@.str.51 = private unnamed_addr constant [8 x i8] c"unknown\00", align 1

; Function Attrs: nounwind uwtable
define dso_local ptr @announceSentinelAddr(ptr noundef %0) #0 {
  %2 = alloca ptr, align 8
  store ptr %0, ptr %2, align 8, !tbaa !94
  %3 = load i32, ptr getelementptr inbounds nuw (%struct.sentinelState, ptr @sentinel, i32 0, i32 15), align 4, !tbaa !78
  %4 = icmp ne i32 %3, 0
  br i1 %4, label %5, label %9

5:                                                ; preds = %1
  %6 = load ptr, ptr %2, align 8, !tbaa !94
  %7 = getelementptr inbounds nuw %struct.sentinelAddr, ptr %6, i32 0, i32 0
  %8 = load ptr, ptr %7, align 8, !tbaa !95
  br label %13

9:                                                ; preds = %1
  %10 = load ptr, ptr %2, align 8, !tbaa !94
  %11 = getelementptr inbounds nuw %struct.sentinelAddr, ptr %10, i32 0, i32 1
  %12 = load ptr, ptr %11, align 8, !tbaa !97
  br label %13

13:                                               ; preds = %9, %5
  %14 = phi ptr [ %8, %5 ], [ %12, %9 ]
  ret ptr %14
}

; Function Attrs: nounwind uwtable
define dso_local ptr @sentinelRedisInstanceTypeStr(ptr noundef %0) #0 {
  %2 = alloca ptr, align 8
  %3 = alloca ptr, align 8
  store ptr %0, ptr %3, align 8, !tbaa !11
  %4 = load ptr, ptr %3, align 8, !tbaa !11
  %5 = getelementptr inbounds nuw %struct.sentinelRedisInstance, ptr %4, i32 0, i32 0
  %6 = load i32, ptr %5, align 8, !tbaa !34
  %7 = and i32 %6, 1
  %8 = icmp ne i32 %7, 0
  br i1 %8, label %9, label %10

9:                                                ; preds = %1
  store ptr @.str.48, ptr %2, align 8
  br label %25

10:                                               ; preds = %1
  %11 = load ptr, ptr %3, align 8, !tbaa !11
  %12 = getelementptr inbounds nuw %struct.sentinelRedisInstance, ptr %11, i32 0, i32 0
  %13 = load i32, ptr %12, align 8, !tbaa !34
  %14 = and i32 %13, 2
  %15 = icmp ne i32 %14, 0
  br i1 %15, label %16, label %17

16:                                               ; preds = %10
  store ptr @.str.49, ptr %2, align 8
  br label %25

17:                                               ; preds = %10
  %18 = load ptr, ptr %3, align 8, !tbaa !11
  %19 = getelementptr inbounds nuw %struct.sentinelRedisInstance, ptr %18, i32 0, i32 0
  %20 = load i32, ptr %19, align 8, !tbaa !34
  %21 = and i32 %20, 4
  %22 = icmp ne i32 %21, 0
  br i1 %22, label %23, label %24

23:                                               ; preds = %17
  store ptr @.str.50, ptr %2, align 8
  br label %25

24:                                               ; preds = %17
  store ptr @.str.51, ptr %2, align 8
  br label %25

25:                                               ; preds = %24, %23, %16, %9
  %26 = load ptr, ptr %2, align 8
  ret ptr %26
}

; Function Attrs: nounwind uwtable
define dso_local void @sentinelEvent(i32 noundef %0, ptr noundef %1, ptr noundef %2, ptr noundef %3, ...) #0 {
  %5 = alloca i32, align 4
  %6 = alloca ptr, align 8
  %7 = alloca ptr, align 8
  %8 = alloca ptr, align 8
  %9 = alloca [1 x %struct.__va_list_tag], align 16
  %10 = alloca [1024 x i8], align 16
  %11 = alloca ptr, align 8
  %12 = alloca ptr, align 8
  %13 = alloca ptr, align 8
  %14 = alloca ptr, align 8
  store i32 %0, ptr %5, align 4, !tbaa !82
  store ptr %1, ptr %6, align 8, !tbaa !93
  store ptr %2, ptr %7, align 8, !tbaa !11
  store ptr %3, ptr %8, align 8, !tbaa !93
  call void @llvm.lifetime.start.p0(i64 24, ptr %9) #16
  call void @llvm.lifetime.start.p0(i64 1024, ptr %10) #16
  call void @llvm.lifetime.start.p0(i64 8, ptr %11) #16
  call void @llvm.lifetime.start.p0(i64 8, ptr %12) #16
  %15 = load ptr, ptr %8, align 8, !tbaa !93
  %16 = getelementptr inbounds i8, ptr %15, i64 0
  %17 = load i8, ptr %16, align 1, !tbaa !83
  %18 = sext i8 %17 to i32
  %19 = icmp eq i32 %18, 37
  br i1 %19, label %20, label %90

20:                                               ; preds = %4
  %21 = load ptr, ptr %8, align 8, !tbaa !93
  %22 = getelementptr inbounds i8, ptr %21, i64 1
  %23 = load i8, ptr %22, align 1, !tbaa !83
  %24 = sext i8 %23 to i32
  %25 = icmp eq i32 %24, 64
  br i1 %25, label %26, label %90

26:                                               ; preds = %20
  call void @llvm.lifetime.start.p0(i64 8, ptr %13) #16
  %27 = load ptr, ptr %7, align 8, !tbaa !11
  %28 = getelementptr inbounds nuw %struct.sentinelRedisInstance, ptr %27, i32 0, i32 0
  %29 = load i32, ptr %28, align 8, !tbaa !34
  %30 = and i32 %29, 1
  %31 = icmp ne i32 %30, 0
  br i1 %31, label %32, label %33

32:                                               ; preds = %26
  br label %37

33:                                               ; preds = %26
  %34 = load ptr, ptr %7, align 8, !tbaa !11
  %35 = getelementptr inbounds nuw %struct.sentinelRedisInstance, ptr %34, i32 0, i32 29
  %36 = load ptr, ptr %35, align 8, !tbaa !35
  br label %37

37:                                               ; preds = %33, %32
  %38 = phi ptr [ null, %32 ], [ %36, %33 ]
  store ptr %38, ptr %13, align 8, !tbaa !11
  %39 = load ptr, ptr %13, align 8, !tbaa !11
  %40 = icmp ne ptr %39, null
  br i1 %40, label %41, label %70

41:                                               ; preds = %37
  %42 = getelementptr inbounds [1024 x i8], ptr %10, i64 0, i64 0
  %43 = load ptr, ptr %7, align 8, !tbaa !11
  %44 = call ptr @sentinelRedisInstanceTypeStr(ptr noundef %43)
  %45 = load ptr, ptr %7, align 8, !tbaa !11
  %46 = getelementptr inbounds nuw %struct.sentinelRedisInstance, ptr %45, i32 0, i32 1
  %47 = load ptr, ptr %46, align 8, !tbaa !23
  %48 = load ptr, ptr %7, align 8, !tbaa !11
  %49 = getelementptr inbounds nuw %struct.sentinelRedisInstance, ptr %48, i32 0, i32 4
  %50 = load ptr, ptr %49, align 8, !tbaa !32
  %51 = call ptr @announceSentinelAddr(ptr noundef %50)
  %52 = load ptr, ptr %7, align 8, !tbaa !11
  %53 = getelementptr inbounds nuw %struct.sentinelRedisInstance, ptr %52, i32 0, i32 4
  %54 = load ptr, ptr %53, align 8, !tbaa !32
  %55 = getelementptr inbounds nuw %struct.sentinelAddr, ptr %54, i32 0, i32 2
  %56 = load i32, ptr %55, align 8, !tbaa !98
  %57 = load ptr, ptr %13, align 8, !tbaa !11
  %58 = getelementptr inbounds nuw %struct.sentinelRedisInstance, ptr %57, i32 0, i32 1
  %59 = load ptr, ptr %58, align 8, !tbaa !23
  %60 = load ptr, ptr %13, align 8, !tbaa !11
  %61 = getelementptr inbounds nuw %struct.sentinelRedisInstance, ptr %60, i32 0, i32 4
  %62 = load ptr, ptr %61, align 8, !tbaa !32
  %63 = call ptr @announceSentinelAddr(ptr noundef %62)
  %64 = load ptr, ptr %13, align 8, !tbaa !11
  %65 = getelementptr inbounds nuw %struct.sentinelRedisInstance, ptr %64, i32 0, i32 4
  %66 = load ptr, ptr %65, align 8, !tbaa !32
  %67 = getelementptr inbounds nuw %struct.sentinelAddr, ptr %66, i32 0, i32 2
  %68 = load i32, ptr %67, align 8, !tbaa !98
  %69 = call i32 (ptr, i64, ptr, ...) @snprintf(ptr noundef %42, i64 noundef 1024, ptr noundef @.str.15, ptr noundef %44, ptr noundef %47, ptr noundef %51, i32 noundef %56, ptr noundef %59, ptr noundef %63, i32 noundef %68) #16
  br label %87

70:                                               ; preds = %37
  %71 = getelementptr inbounds [1024 x i8], ptr %10, i64 0, i64 0
  %72 = load ptr, ptr %7, align 8, !tbaa !11
  %73 = call ptr @sentinelRedisInstanceTypeStr(ptr noundef %72)
  %74 = load ptr, ptr %7, align 8, !tbaa !11
  %75 = getelementptr inbounds nuw %struct.sentinelRedisInstance, ptr %74, i32 0, i32 1
  %76 = load ptr, ptr %75, align 8, !tbaa !23
  %77 = load ptr, ptr %7, align 8, !tbaa !11
  %78 = getelementptr inbounds nuw %struct.sentinelRedisInstance, ptr %77, i32 0, i32 4
  %79 = load ptr, ptr %78, align 8, !tbaa !32
  %80 = call ptr @announceSentinelAddr(ptr noundef %79)
  %81 = load ptr, ptr %7, align 8, !tbaa !11
  %82 = getelementptr inbounds nuw %struct.sentinelRedisInstance, ptr %81, i32 0, i32 4
  %83 = load ptr, ptr %82, align 8, !tbaa !32
  %84 = getelementptr inbounds nuw %struct.sentinelAddr, ptr %83, i32 0, i32 2
  %85 = load i32, ptr %84, align 8, !tbaa !98
  %86 = call i32 (ptr, i64, ptr, ...) @snprintf(ptr noundef %71, i64 noundef 1024, ptr noundef @.str.16, ptr noundef %73, ptr noundef %76, ptr noundef %80, i32 noundef %85) #16
  br label %87

87:                                               ; preds = %70, %41
  %88 = load ptr, ptr %8, align 8, !tbaa !93
  %89 = getelementptr inbounds i8, ptr %88, i64 2
  store ptr %89, ptr %8, align 8, !tbaa !93
  call void @llvm.lifetime.end.p0(i64 8, ptr %13) #16
  br label %92

90:                                               ; preds = %20, %4
  %91 = getelementptr inbounds [1024 x i8], ptr %10, i64 0, i64 0
  store i8 0, ptr %91, align 16, !tbaa !83
  br label %92

92:                                               ; preds = %90, %87
  %93 = load ptr, ptr %8, align 8, !tbaa !93
  %94 = getelementptr inbounds i8, ptr %93, i64 0
  %95 = load i8, ptr %94, align 1, !tbaa !83
  %96 = sext i8 %95 to i32
  %97 = icmp ne i32 %96, 0
  br i1 %97, label %98, label %111

98:                                               ; preds = %92
  %99 = getelementptr inbounds [1 x %struct.__va_list_tag], ptr %9, i64 0, i64 0
  call void @llvm.va_start.p0(ptr %99)
  %100 = getelementptr inbounds [1024 x i8], ptr %10, i64 0, i64 0
  %101 = getelementptr inbounds [1024 x i8], ptr %10, i64 0, i64 0
  %102 = call i64 @strlen(ptr noundef %101) #19
  %103 = getelementptr inbounds nuw i8, ptr %100, i64 %102
  %104 = getelementptr inbounds [1024 x i8], ptr %10, i64 0, i64 0
  %105 = call i64 @strlen(ptr noundef %104) #19
  %106 = sub i64 1024, %105
  %107 = load ptr, ptr %8, align 8, !tbaa !93
  %108 = getelementptr inbounds [1 x %struct.__va_list_tag], ptr %9, i64 0, i64 0
  %109 = call i32 @vsnprintf(ptr noundef %103, i64 noundef %106, ptr noundef %107, ptr noundef %108) #16
  %110 = getelementptr inbounds [1 x %struct.__va_list_tag], ptr %9, i64 0, i64 0
  call void @llvm.va_end.p0(ptr %110)
  br label %111

111:                                              ; preds = %98, %92
  %112 = load i32, ptr %5, align 4, !tbaa !82
  %113 = load i32, ptr getelementptr inbounds nuw (%struct.redisServer, ptr @server, i32 0, i32 159), align 8, !tbaa !81
  %114 = icmp sge i32 %112, %113
  br i1 %114, label %115, label %128

115:                                              ; preds = %111
  br label %116

116:                                              ; preds = %115
  %117 = load i32, ptr %5, align 4, !tbaa !82
  %118 = and i32 %117, 255
  %119 = load i32, ptr getelementptr inbounds nuw (%struct.redisServer, ptr @server, i32 0, i32 159), align 8, !tbaa !81
  %120 = icmp slt i32 %118, %119
  br i1 %120, label %121, label %122

121:                                              ; preds = %116
  br label %127

122:                                              ; preds = %116
  %123 = load i32, ptr %5, align 4, !tbaa !82
  %124 = load ptr, ptr %6, align 8, !tbaa !93
  %125 = getelementptr inbounds [1024 x i8], ptr %10, i64 0, i64 0
  call void (i32, ptr, ...) @_serverLog(i32 noundef %123, ptr noundef @.str.17, ptr noundef %124, ptr noundef %125)
  br label %126

126:                                              ; preds = %122
  br label %127

127:                                              ; preds = %126, %121
  br label %128

128:                                              ; preds = %127, %111
  %129 = load i32, ptr %5, align 4, !tbaa !82
  %130 = icmp ne i32 %129, 0
  br i1 %130, label %131, label %145

131:                                              ; preds = %128
  %132 = load ptr, ptr %6, align 8, !tbaa !93
  %133 = load ptr, ptr %6, align 8, !tbaa !93
  %134 = call i64 @strlen(ptr noundef %133) #19
  %135 = call ptr @createStringObject(ptr noundef %132, i64 noundef %134)
  store ptr %135, ptr %11, align 8, !tbaa !99
  %136 = getelementptr inbounds [1024 x i8], ptr %10, i64 0, i64 0
  %137 = getelementptr inbounds [1024 x i8], ptr %10, i64 0, i64 0
  %138 = call i64 @strlen(ptr noundef %137) #19
  %139 = call ptr @createStringObject(ptr noundef %136, i64 noundef %138)
  store ptr %139, ptr %12, align 8, !tbaa !99
  %140 = load ptr, ptr %11, align 8, !tbaa !99
  %141 = load ptr, ptr %12, align 8, !tbaa !99
  %142 = call i32 @pubsubPublishMessage(ptr noundef %140, ptr noundef %141, i32 noundef 0)
  %143 = load ptr, ptr %11, align 8, !tbaa !99
  call void @decrRefCount(ptr noundef %143)
  %144 = load ptr, ptr %12, align 8, !tbaa !99
  call void @decrRefCount(ptr noundef %144)
  br label %145

145:                                              ; preds = %131, %128
  %146 = load i32, ptr %5, align 4, !tbaa !82
  %147 = icmp eq i32 %146, 3
  br i1 %147, label %148, label %179

148:                                              ; preds = %145
  %149 = load ptr, ptr %7, align 8, !tbaa !11
  %150 = icmp ne ptr %149, null
  br i1 %150, label %151, label %179

151:                                              ; preds = %148
  call void @llvm.lifetime.start.p0(i64 8, ptr %14) #16
  %152 = load ptr, ptr %7, align 8, !tbaa !11
  %153 = getelementptr inbounds nuw %struct.sentinelRedisInstance, ptr %152, i32 0, i32 0
  %154 = load i32, ptr %153, align 8, !tbaa !34
  %155 = and i32 %154, 1
  %156 = icmp ne i32 %155, 0
  br i1 %156, label %157, label %159

157:                                              ; preds = %151
  %158 = load ptr, ptr %7, align 8, !tbaa !11
  br label %163

159:                                              ; preds = %151
  %160 = load ptr, ptr %7, align 8, !tbaa !11
  %161 = getelementptr inbounds nuw %struct.sentinelRedisInstance, ptr %160, i32 0, i32 29
  %162 = load ptr, ptr %161, align 8, !tbaa !35
  br label %163

163:                                              ; preds = %159, %157
  %164 = phi ptr [ %158, %157 ], [ %162, %159 ]
  store ptr %164, ptr %14, align 8, !tbaa !11
  %165 = load ptr, ptr %14, align 8, !tbaa !11
  %166 = icmp ne ptr %165, null
  br i1 %166, label %167, label %178

167:                                              ; preds = %163
  %168 = load ptr, ptr %14, align 8, !tbaa !11
  %169 = getelementptr inbounds nuw %struct.sentinelRedisInstance, ptr %168, i32 0, i32 43
  %170 = load ptr, ptr %169, align 8, !tbaa !25
  %171 = icmp ne ptr %170, null
  br i1 %171, label %172, label %178

172:                                              ; preds = %167
  %173 = load ptr, ptr %14, align 8, !tbaa !11
  %174 = getelementptr inbounds nuw %struct.sentinelRedisInstance, ptr %173, i32 0, i32 43
  %175 = load ptr, ptr %174, align 8, !tbaa !25
  %176 = load ptr, ptr %6, align 8, !tbaa !93
  %177 = getelementptr inbounds [1024 x i8], ptr %10, i64 0, i64 0
  call void (ptr, ...) @sentinelScheduleScriptExecution(ptr noundef %175, ptr noundef %176, ptr noundef %177, ptr noundef null)
  br label %178

178:                                              ; preds = %172, %167, %163
  call void @llvm.lifetime.end.p0(i64 8, ptr %14) #16
  br label %179

179:                                              ; preds = %178, %148, %145
  call void @llvm.lifetime.end.p0(i64 8, ptr %12) #16
  call void @llvm.lifetime.end.p0(i64 8, ptr %11) #16
  call void @llvm.lifetime.end.p0(i64 1024, ptr %10) #16
  call void @llvm.lifetime.end.p0(i64 24, ptr %9) #16
  ret void
}