; Function Attrs: nounwind uwtable
define dso_local void @sentinelEvent(i32 noundef %0, ptr noundef %1, ptr noundef readonly captures(address_is_null) %2, ptr noundef readonly captures(none) %3, ...) local_unnamed_addr #0 {
  %5 = alloca [1 x %struct.__va_list_tag], align 16
  %6 = alloca [1024 x i8], align 16
  call void @llvm.lifetime.start.p0(i64 24, ptr nonnull %5) #30
  call void @llvm.lifetime.start.p0(i64 1024, ptr nonnull %6) #30
  %7 = load i8, ptr %3, align 1, !tbaa !79
  %8 = icmp eq i8 %7, 37
  br i1 %8, label %9, label %51

9:                                                ; preds = %4
  %10 = getelementptr inbounds nuw i8, ptr %3, i64 1
  %11 = load i8, ptr %10, align 1, !tbaa !79
  %12 = icmp eq i8 %11, 64
  br i1 %12, label %13, label %51

13:                                               ; preds = %9
  %14 = load i32, ptr %2, align 8, !tbaa !34
  %15 = and i32 %14, 1
  %.not = icmp eq i32 %15, 0
  br i1 %.not, label %16, label %sentinelRedisInstanceTypeStr.exit63

16:                                               ; preds = %13
  %17 = getelementptr inbounds nuw i8, ptr %2, i64 216
  %18 = load ptr, ptr %17, align 8, !tbaa !35
  %.not45 = icmp eq ptr %18, null
  %19 = and i32 %14, 2
  %.not4.i60 = icmp eq i32 %19, 0
  br i1 %.not45, label %37, label %sentinelRedisInstanceTypeStr.exit

sentinelRedisInstanceTypeStr.exit:                ; preds = %16
  %20 = and i32 %14, 4
  %.not5.i = icmp eq i32 %20, 0
  %.str.51..str.50.i = select i1 %.not5.i, ptr @.str.51, ptr @.str.50
  %.0.i = select i1 %.not4.i60, ptr %.str.51..str.50.i, ptr @.str.49
  %21 = getelementptr inbounds nuw i8, ptr %2, i64 8
  %22 = load ptr, ptr %21, align 8, !tbaa !20
  %23 = getelementptr inbounds nuw i8, ptr %2, i64 32
  %24 = load ptr, ptr %23, align 8, !tbaa !29
  %25 = load i32, ptr getelementptr inbounds nuw (i8, ptr @sentinel, i64 148), align 4, !tbaa !88
  %.not.i54 = icmp eq i32 %25, 0
  %.in.idx.i = select i1 %.not.i54, i64 8, i64 0
  %.in.i = getelementptr inbounds nuw i8, ptr %24, i64 %.in.idx.i
  %26 = load ptr, ptr %.in.i, align 8, !tbaa !87
  %27 = getelementptr inbounds nuw i8, ptr %24, i64 16
  %28 = load i32, ptr %27, align 8, !tbaa !86
  %29 = getelementptr inbounds nuw i8, ptr %18, i64 8
  %30 = load ptr, ptr %29, align 8, !tbaa !20
  %31 = getelementptr inbounds nuw i8, ptr %18, i64 32
  %32 = load ptr, ptr %31, align 8, !tbaa !29
  %.in.i57 = getelementptr inbounds nuw i8, ptr %32, i64 %.in.idx.i
  %33 = load ptr, ptr %.in.i57, align 8, !tbaa !87
  %34 = getelementptr inbounds nuw i8, ptr %32, i64 16
  %35 = load i32, ptr %34, align 8, !tbaa !86
  %36 = call i32 (ptr, i64, ptr, ...) @snprintf(ptr noundef nonnull dereferenceable(1) %6, i64 noundef 1024, ptr noundef nonnull @.str.15, ptr noundef nonnull %.0.i, ptr noundef %22, ptr noundef %26, i32 noundef %28, ptr noundef %30, ptr noundef %33, i32 noundef %35) #30
  br label %49

37:                                               ; preds = %16
  br i1 %.not4.i60, label %38, label %sentinelRedisInstanceTypeStr.exit63

38:                                               ; preds = %37
  %39 = and i32 %14, 4
  %.not5.i61 = icmp eq i32 %39, 0
  %.str.51..str.50.i62 = select i1 %.not5.i61, ptr @.str.51, ptr @.str.50
  br label %sentinelRedisInstanceTypeStr.exit63

sentinelRedisInstanceTypeStr.exit63:              ; preds = %13, %37, %38
  %.0.i59 = phi ptr [ @.str.49, %37 ], [ %.str.51..str.50.i62, %38 ], [ @.str.48, %13 ]
  %40 = getelementptr inbounds nuw i8, ptr %2, i64 8
  %41 = load ptr, ptr %40, align 8, !tbaa !20
  %42 = getelementptr inbounds nuw i8, ptr %2, i64 32
  %43 = load ptr, ptr %42, align 8, !tbaa !29
  %44 = load i32, ptr getelementptr inbounds nuw (i8, ptr @sentinel, i64 148), align 4, !tbaa !88
  %.not.i64 = icmp eq i32 %44, 0
  %.in.idx.i65 = select i1 %.not.i64, i64 8, i64 0
  %.in.i66 = getelementptr inbounds nuw i8, ptr %43, i64 %.in.idx.i65
  %45 = load ptr, ptr %.in.i66, align 8, !tbaa !87
  %46 = getelementptr inbounds nuw i8, ptr %43, i64 16
  %47 = load i32, ptr %46, align 8, !tbaa !86
  %48 = call i32 (ptr, i64, ptr, ...) @snprintf(ptr noundef nonnull dereferenceable(1) %6, i64 noundef 1024, ptr noundef nonnull @.str.16, ptr noundef nonnull %.0.i59, ptr noundef %41, ptr noundef %45, i32 noundef %47) #30
  br label %49

49:                                               ; preds = %sentinelRedisInstanceTypeStr.exit63, %sentinelRedisInstanceTypeStr.exit
  %50 = getelementptr inbounds nuw i8, ptr %3, i64 2
  %.pre = load i8, ptr %50, align 1, !tbaa !79
  br label %52

51:                                               ; preds = %9, %4
  store i8 0, ptr %6, align 16, !tbaa !79
  br label %52

52:                                               ; preds = %51, %49
  %53 = phi i8 [ %.pre, %49 ], [ %7, %51 ]
  %.0 = phi ptr [ %50, %49 ], [ %3, %51 ]
  %.not46 = icmp eq i8 %53, 0
  br i1 %.not46, label %59, label %54

54:                                               ; preds = %52
  call void @llvm.va_start.p0(ptr nonnull %5)
  %55 = call i64 @strlen(ptr noundef nonnull dereferenceable(1) %6) #34
  %56 = getelementptr inbounds nuw i8, ptr %6, i64 %55
  %57 = sub i64 1024, %55
  %58 = call i32 @vsnprintf(ptr noundef nonnull %56, i64 noundef %57, ptr noundef nonnull %.0, ptr noundef nonnull %5) #30
  call void @llvm.va_end.p0(ptr nonnull %5)
  br label %59

59:                                               ; preds = %54, %52
  %60 = load i32, ptr getelementptr inbounds nuw (i8, ptr @server, i64 6288), align 8, !tbaa !77
  %.not47 = icmp slt i32 %0, %60
  %61 = and i32 %0, 255
  %62 = icmp slt i32 %61, %60
  %or.cond53 = or i1 %.not47, %62
  br i1 %or.cond53, label %64, label %63

63:                                               ; preds = %59
  call void (i32, ptr, ...) @_serverLog(i32 noundef %0, ptr noundef nonnull @.str.17, ptr noundef %1, ptr noundef nonnull %6) #30
  br label %64

64:                                               ; preds = %63, %59
  %.not48 = icmp eq i32 %0, 0
  br i1 %.not48, label %.thread69, label %65

65:                                               ; preds = %64
  %66 = call i64 @strlen(ptr noundef nonnull dereferenceable(1) %1) #34
  %67 = call ptr @createStringObject(ptr noundef nonnull %1, i64 noundef %66) #30
  %68 = call i64 @strlen(ptr noundef nonnull dereferenceable(1) %6) #34
  %69 = call ptr @createStringObject(ptr noundef nonnull %6, i64 noundef %68) #30
  %70 = call i32 @pubsubPublishMessage(ptr noundef %67, ptr noundef %69, i32 noundef 0) #30
  call void @decrRefCount(ptr noundef %67) #30
  call void @decrRefCount(ptr noundef %69) #30
  %71 = icmp eq i32 %0, 3
  %72 = icmp ne ptr %2, null
  %or.cond = and i1 %71, %72
  br i1 %or.cond, label %73, label %.thread69

73:                                               ; preds = %65
  %74 = load i32, ptr %2, align 8, !tbaa !34
  %75 = and i32 %74, 1
  %.not49 = icmp eq i32 %75, 0
  br i1 %.not49, label %76, label %.thread71

76:                                               ; preds = %73
  %77 = getelementptr inbounds nuw i8, ptr %2, i64 216
  %78 = load ptr, ptr %77, align 8, !tbaa !35
  %.not50 = icmp eq ptr %78, null
  br i1 %.not50, label %.thread69, label %.thread71

.thread71:                                        ; preds = %73, %76
  %79 = phi ptr [ %78, %76 ], [ %2, %73 ]
  %80 = getelementptr inbounds nuw i8, ptr %79, i64 320
  %81 = load ptr, ptr %80, align 8, !tbaa !22
  %.not51 = icmp eq ptr %81, null
  br i1 %.not51, label %.thread69, label %82

82:                                               ; preds = %.thread71
  call void (ptr, ...) @sentinelScheduleScriptExecution(ptr noundef nonnull %81, ptr noundef nonnull %1, ptr noundef nonnull %6, ptr noundef null)
  br label %.thread69

.thread69:                                        ; preds = %64, %76, %.thread71, %82, %65
  call void @llvm.lifetime.end.p0(i64 1024, ptr nonnull %6) #30
  call void @llvm.lifetime.end.p0(i64 24, ptr nonnull %5) #30
  ret void
}